target datalayout = "e-m:e-p270:32:32-p271:32:32-p272:64:64-i64:64-i128:128-f80:128-n8:16:32:64-S128"
target triple = "x86_64-pc-linux-gnu"

%struct.AVProbeData = type { ptr, ptr, i32, ptr }
%struct.AVRational = type { i32, i32 }
%struct.AVFormatContext = type { ptr, ptr, ptr, ptr, ptr, i32, i32, ptr, i32, ptr, i32, ptr, ptr, i64, i64, i64, i32, i32, i32, i64, i64, ptr, i32, i32, ptr, i32, i32, i32, i32, ptr, i64, i32, i32, %struct.AVIOInterruptCB, i32, i32, i32, i32, i64, i32, i32, i32, i32, i32, i32, i32, i32, i32, i32, i32, i32, i64, i32, i32, i32, i32, i32, ptr, ptr, ptr, ptr, i32, ptr, ptr, ptr, ptr, i32, ptr, ptr, i64, ptr, ptr, ptr, i64 }
%struct.AVIOInterruptCB = type { ptr, ptr }
%struct.AVStream = type { ptr, i32, i32, ptr, ptr, %struct.AVRational, i64, i64, i64, i32, i32, %struct.AVRational, ptr, %struct.AVRational, %struct.AVPacket, i32, %struct.AVRational, i32 }
%struct.AVPacket = type { ptr, i64, i64, ptr, i32, i32, i32, ptr, i32, i64, i64, ptr, ptr, %struct.AVRational }
%struct.MvContext = type { i32, i32, i32, i32, [2 x i32], i32, i32 }
%struct.FFStream = type { %struct.AVStream, ptr, i32, ptr, i32, ptr, i32, %struct.anon, i32, i32, %struct.FFFrac, ptr, ptr, i32, i32, i64, i64, i32, i32, i32, i64, i64, i64, i32, i64, i64, i64, i32, i32, [17 x i64], [17 x i8], [17 x i64], i64, i8, i8, %struct.AVRational, %struct.AVProbeData, ptr, i64, i32, i32, i32, ptr, i32, i32, i64, i64, ptr, %struct.AVRational }
%struct.anon = type { ptr, i32 }
%struct.FFFrac = type { i64, i64, i64 }
%struct.AVIndexEntry = type { i64, i64, i32, i32 }
%struct.AVIOContext = type { ptr, ptr, i32, ptr, ptr, ptr, ptr, ptr, ptr, i64, i32, i32, i32, i32, i32, i64, ptr, ptr, ptr, ptr, i32, i32, ptr, ptr, ptr, i32, ptr, i64, i64 }

; Function Attrs: alwaysinline nounwind uwtable
define internal i64 @avio_tell(ptr noundef %0) #5 {
  %2 = alloca ptr, align 8
  store ptr %0, ptr %2, align 8, !tbaa !34
  %3 = load ptr, ptr %2, align 8, !tbaa !34
  %4 = call i64 @avio_seek(ptr noundef %3, i64 noundef 0, i32 noundef 1)
  ret i64 %4
}

; Function Attrs: alwaysinline nounwind uwtable
define internal ptr @ffstream(ptr noundef %0) #5 {
  %2 = alloca ptr, align 8
  store ptr %0, ptr %2, align 8, !tbaa !35
  %3 = load ptr, ptr %2, align 8, !tbaa !35
  ret ptr %3
}

; Function Attrs: nounwind uwtable
define internal i32 @mv_read_packet(ptr noundef %0, ptr noundef %1) #0 {
  %3 = alloca i32, align 4
  %4 = alloca ptr, align 8
  %5 = alloca ptr, align 8
  %6 = alloca ptr, align 8
  %7 = alloca ptr, align 8
  %8 = alloca ptr, align 8
  %9 = alloca ptr, align 8
  %10 = alloca ptr, align 8
  %11 = alloca i32, align 4
  %12 = alloca i64, align 8
  %13 = alloca i64, align 8
  %14 = alloca i32, align 4
  store ptr %0, ptr %4, align 8, !tbaa !14
  store ptr %1, ptr %5, align 8, !tbaa !69
  call void @llvm.lifetime.start.p0(i64 8, ptr %6) #10
  %15 = load ptr, ptr %4, align 8, !tbaa !14
  %16 = getelementptr inbounds nuw %struct.AVFormatContext, ptr %15, i32 0, i32 3
  %17 = load ptr, ptr %16, align 8, !tbaa !16
  store ptr %17, ptr %6, align 8, !tbaa !31
  call void @llvm.lifetime.start.p0(i64 8, ptr %7) #10
  %18 = load ptr, ptr %4, align 8, !tbaa !14
  %19 = getelementptr inbounds nuw %struct.AVFormatContext, ptr %18, i32 0, i32 4
  %20 = load ptr, ptr %19, align 8, !tbaa !33
  store ptr %20, ptr %7, align 8, !tbaa !34
  call void @llvm.lifetime.start.p0(i64 8, ptr %8) #10
  %21 = load ptr, ptr %4, align 8, !tbaa !14
  %22 = getelementptr inbounds nuw %struct.AVFormatContext, ptr %21, i32 0, i32 7
  %23 = load ptr, ptr %22, align 8, !tbaa !71
  %24 = load ptr, ptr %6, align 8, !tbaa !31
  %25 = getelementptr inbounds nuw %struct.MvContext, ptr %24, i32 0, i32 3
  %26 = load i32, ptr %25, align 4, !tbaa !72
  %27 = sext i32 %26 to i64
  %28 = getelementptr inbounds ptr, ptr %23, i64 %27
  %29 = load ptr, ptr %28, align 8, !tbaa !35
  store ptr %29, ptr %8, align 8, !tbaa !35
  call void @llvm.lifetime.start.p0(i64 8, ptr %9) #10
  %30 = load ptr, ptr %8, align 8, !tbaa !35
  %31 = call ptr @ffstream(ptr noundef %30)
  store ptr %31, ptr %9, align 8, !tbaa !73
  call void @llvm.lifetime.start.p0(i64 8, ptr %10) #10
  call void @llvm.lifetime.start.p0(i64 4, ptr %11) #10
  %32 = load ptr, ptr %6, align 8, !tbaa !31
  %33 = getelementptr inbounds nuw %struct.MvContext, ptr %32, i32 0, i32 4
  %34 = load ptr, ptr %6, align 8, !tbaa !31
  %35 = getelementptr inbounds nuw %struct.MvContext, ptr %34, i32 0, i32 3
  %36 = load i32, ptr %35, align 4, !tbaa !72
  %37 = sext i32 %36 to i64
  %38 = getelementptr inbounds [2 x i32], ptr %33, i64 0, i64 %37
  %39 = load i32, ptr %38, align 4, !tbaa !37
  store i32 %39, ptr %11, align 4, !tbaa !37
  call void @llvm.lifetime.start.p0(i64 8, ptr %12) #10
  call void @llvm.lifetime.start.p0(i64 8, ptr %13) #10
  %40 = load i32, ptr %11, align 4, !tbaa !37
  %41 = load ptr, ptr %9, align 8, !tbaa !73
  %42 = getelementptr inbounds nuw %struct.FFStream, ptr %41, i32 0, i32 13
  %43 = load i32, ptr %42, align 8, !tbaa !75
  %44 = icmp slt i32 %40, %43
  br i1 %44, label %45, label %133

45:                                               ; preds = %2
  %46 = load ptr, ptr %9, align 8, !tbaa !73
  %47 = getelementptr inbounds nuw %struct.FFStream, ptr %46, i32 0, i32 12
  %48 = load ptr, ptr %47, align 8, !tbaa !86
  %49 = load i32, ptr %11, align 4, !tbaa !37
  %50 = sext i32 %49 to i64
  %51 = getelementptr inbounds %struct.AVIndexEntry, ptr %48, i64 %50
  store ptr %51, ptr %10, align 8, !tbaa !87
  %52 = load ptr, ptr %7, align 8, !tbaa !34
  %53 = call i64 @avio_tell(ptr noundef %52)
  store i64 %53, ptr %13, align 8, !tbaa !59
  %54 = load ptr, ptr %10, align 8, !tbaa !87
  %55 = getelementptr inbounds nuw %struct.AVIndexEntry, ptr %54, i32 0, i32 0
  %56 = load i64, ptr %55, align 8, !tbaa !88
  %57 = load i64, ptr %13, align 8, !tbaa !59
  %58 = icmp ugt i64 %56, %57
  br i1 %58, label %59, label %67

59:                                               ; preds = %45
  %60 = load ptr, ptr %7, align 8, !tbaa !34
  %61 = load ptr, ptr %10, align 8, !tbaa !87
  %62 = getelementptr inbounds nuw %struct.AVIndexEntry, ptr %61, i32 0, i32 0
  %63 = load i64, ptr %62, align 8, !tbaa !88
  %64 = load i64, ptr %13, align 8, !tbaa !59
  %65 = sub i64 %63, %64
  %66 = call i64 @avio_skip(ptr noundef %60, i64 noundef %65)
  br label %93

67:                                               ; preds = %45
  %68 = load ptr, ptr %10, align 8, !tbaa !87
  %69 = getelementptr inbounds nuw %struct.AVIndexEntry, ptr %68, i32 0, i32 0
  %70 = load i64, ptr %69, align 8, !tbaa !88
  %71 = load i64, ptr %13, align 8, !tbaa !59
  %72 = icmp ult i64 %70, %71
  br i1 %72, label %73, label %92

73:                                               ; preds = %67
  %74 = load ptr, ptr %7, align 8, !tbaa !34
  %75 = getelementptr inbounds nuw %struct.AVIOContext, ptr %74, i32 0, i32 20
  %76 = load i32, ptr %75, align 8, !tbaa !90
  %77 = and i32 %76, 1
  %78 = icmp ne i32 %77, 0
  br i1 %78, label %80, label %79

79:                                               ; preds = %73
  store i32 -5, ptr %3, align 4
  store i32 1, ptr %14, align 4
  br label %163

80:                                               ; preds = %73
  %81 = load ptr, ptr %7, align 8, !tbaa !34
  %82 = load ptr, ptr %10, align 8, !tbaa !87
  %83 = getelementptr inbounds nuw %struct.AVIndexEntry, ptr %82, i32 0, i32 0
  %84 = load i64, ptr %83, align 8, !tbaa !88
  %85 = call i64 @avio_seek(ptr noundef %81, i64 noundef %84, i32 noundef 0)
  store i64 %85, ptr %12, align 8, !tbaa !59
  %86 = load i64, ptr %12, align 8, !tbaa !59
  %87 = icmp slt i64 %86, 0
  br i1 %87, label %88, label %91

88:                                               ; preds = %80
  %89 = load i64, ptr %12, align 8, !tbaa !59
  %90 = trunc i64 %89 to i32
  store i32 %90, ptr %3, align 4
  store i32 1, ptr %14, align 4
  br label %163

91:                                               ; preds = %80
  br label %92

92:                                               ; preds = %91, %67
  br label %93

93:                                               ; preds = %92, %59
  %94 = load ptr, ptr %7, align 8, !tbaa !34
  %95 = load ptr, ptr %5, align 8, !tbaa !69
  %96 = load ptr, ptr %10, align 8, !tbaa !87
  %97 = getelementptr inbounds nuw %struct.AVIndexEntry, ptr %96, i32 0, i32 2
  %98 = load i32, ptr %97, align 8
  %99 = ashr i32 %98, 2
  %100 = call i32 @av_get_packet(ptr noundef %94, ptr noundef %95, i32 noundef %99)
  %101 = sext i32 %100 to i64
  store i64 %101, ptr %12, align 8, !tbaa !59
  %102 = load i64, ptr %12, align 8, !tbaa !59
  %103 = icmp slt i64 %102, 0
  br i1 %103, label %104, label %107

104:                                              ; preds = %93
  %105 = load i64, ptr %12, align 8, !tbaa !59
  %106 = trunc i64 %105 to i32
  store i32 %106, ptr %3, align 4
  store i32 1, ptr %14, align 4
  br label %163

107:                                              ; preds = %93
  %108 = load ptr, ptr %6, align 8, !tbaa !31
  %109 = getelementptr inbounds nuw %struct.MvContext, ptr %108, i32 0, i32 3
  %110 = load i32, ptr %109, align 4, !tbaa !72
  %111 = load ptr, ptr %5, align 8, !tbaa !69
  %112 = getelementptr inbounds nuw %struct.AVPacket, ptr %111, i32 0, i32 5
  store i32 %110, ptr %112, align 4, !tbaa !92
  %113 = load ptr, ptr %10, align 8, !tbaa !87
  %114 = getelementptr inbounds nuw %struct.AVIndexEntry, ptr %113, i32 0, i32 1
  %115 = load i64, ptr %114, align 8, !tbaa !93
  %116 = load ptr, ptr %5, align 8, !tbaa !69
  %117 = getelementptr inbounds nuw %struct.AVPacket, ptr %116, i32 0, i32 1
  store i64 %115, ptr %117, align 8, !tbaa !94
  %118 = load ptr, ptr %5, align 8, !tbaa !69
  %119 = getelementptr inbounds nuw %struct.AVPacket, ptr %118, i32 0, i32 6
  %120 = load i32, ptr %119, align 8, !tbaa !95
  %121 = or i32 %120, 1
  store i32 %121, ptr %119, align 8, !tbaa !95
  %122 = load ptr, ptr %6, align 8, !tbaa !31
  %123 = getelementptr inbounds nuw %struct.MvContext, ptr %122, i32 0, i32 4
  %124 = load ptr, ptr %6, align 8, !tbaa !31
  %125 = getelementptr inbounds nuw %struct.MvContext, ptr %124, i32 0, i32 3
  %126 = load i32, ptr %125, align 4, !tbaa !72
  %127 = sext i32 %126 to i64
  %128 = getelementptr inbounds [2 x i32], ptr %123, i64 0, i64 %127
  %129 = load i32, ptr %128, align 4, !tbaa !37
  %130 = add nsw i32 %129, 1
  store i32 %130, ptr %128, align 4, !tbaa !37
  %131 = load ptr, ptr %6, align 8, !tbaa !31
  %132 = getelementptr inbounds nuw %struct.MvContext, ptr %131, i32 0, i32 2
  store i32 0, ptr %132, align 4, !tbaa !96
  br label %147

133:                                              ; preds = %2
  %134 = load ptr, ptr %6, align 8, !tbaa !31
  %135 = getelementptr inbounds nuw %struct.MvContext, ptr %134, i32 0, i32 2
  %136 = load i32, ptr %135, align 4, !tbaa !96
  %137 = add nsw i32 %136, 1
  store i32 %137, ptr %135, align 4, !tbaa !96
  %138 = load ptr, ptr %6, align 8, !tbaa !31
  %139 = getelementptr inbounds nuw %struct.MvContext, ptr %138, i32 0, i32 2
  %140 = load i32, ptr %139, align 4, !tbaa !96
  %141 = load ptr, ptr %4, align 8, !tbaa !14
  %142 = getelementptr inbounds nuw %struct.AVFormatContext, ptr %141, i32 0, i32 6
  %143 = load i32, ptr %142, align 4, !tbaa !97
  %144 = icmp uge i32 %140, %143
  br i1 %144, label %145, label %146

145:                                              ; preds = %133
  store i32 -541478725, ptr %3, align 4
  store i32 1, ptr %14, align 4
  br label %163

146:                                              ; preds = %133
  store i32 -11, ptr %3, align 4
  store i32 1, ptr %14, align 4
  br label %163

147:                                              ; preds = %107
  %148 = load ptr, ptr %6, align 8, !tbaa !31
  %149 = getelementptr inbounds nuw %struct.MvContext, ptr %148, i32 0, i32 3
  %150 = load i32, ptr %149, align 4, !tbaa !72
  %151 = add nsw i32 %150, 1
  store i32 %151, ptr %149, align 4, !tbaa !72
  %152 = load ptr, ptr %6, align 8, !tbaa !31
  %153 = getelementptr inbounds nuw %struct.MvContext, ptr %152, i32 0, i32 3
  %154 = load i32, ptr %153, align 4, !tbaa !72
  %155 = load ptr, ptr %4, align 8, !tbaa !14
  %156 = getelementptr inbounds nuw %struct.AVFormatContext, ptr %155, i32 0, i32 6
  %157 = load i32, ptr %156, align 4, !tbaa !97
  %158 = icmp uge i32 %154, %157
  br i1 %158, label %159, label %162

159:                                              ; preds = %147
  %160 = load ptr, ptr %6, align 8, !tbaa !31
  %161 = getelementptr inbounds nuw %struct.MvContext, ptr %160, i32 0, i32 3
  store i32 0, ptr %161, align 4, !tbaa !72
  br label %162

162:                                              ; preds = %159, %147
  store i32 0, ptr %3, align 4
  store i32 1, ptr %14, align 4
  br label %163

163:                                              ; preds = %162, %146, %145, %104, %88, %79
  call void @llvm.lifetime.end.p0(i64 8, ptr %13) #10
  call void @llvm.lifetime.end.p0(i64 8, ptr %12) #10
  call void @llvm.lifetime.end.p0(i64 4, ptr %11) #10
  call void @llvm.lifetime.end.p0(i64 8, ptr %10) #10
  call void @llvm.lifetime.end.p0(i64 8, ptr %9) #10
  call void @llvm.lifetime.end.p0(i64 8, ptr %8) #10
  call void @llvm.lifetime.end.p0(i64 8, ptr %7) #10
  call void @llvm.lifetime.end.p0(i64 8, ptr %6) #10
  %164 = load i32, ptr %3, align 4
  ret i32 %164
}