; Function Attrs: nounwind uwtable
define internal i32 @mv_read_packet(ptr noundef readonly captures(none) %0, ptr noundef %1) #1 {
  %3 = getelementptr inbounds nuw i8, ptr %0, i64 24
  %4 = load ptr, ptr %3, align 8, !tbaa !12
  %5 = getelementptr inbounds nuw i8, ptr %0, i64 32
  %6 = load ptr, ptr %5, align 8, !tbaa !27
  %7 = getelementptr inbounds nuw i8, ptr %0, i64 48
  %8 = load ptr, ptr %7, align 8, !tbaa !56
  %9 = getelementptr inbounds nuw i8, ptr %4, i64 12
  %10 = load i32, ptr %9, align 4, !tbaa !57
  %11 = sext i32 %10 to i64
  %12 = getelementptr inbounds ptr, ptr %8, i64 %11
  %13 = load ptr, ptr %12, align 8, !tbaa !58
  %14 = getelementptr inbounds nuw i8, ptr %4, i64 16
  %15 = getelementptr inbounds [2 x i32], ptr %14, i64 0, i64 %11
  %16 = load i32, ptr %15, align 4, !tbaa !38
  %17 = getelementptr inbounds nuw i8, ptr %13, i64 328
  %18 = load i32, ptr %17, align 8, !tbaa !60
  %19 = icmp slt i32 %16, %18
  br i1 %19, label %20, label %66

20:                                               ; preds = %2
  %21 = getelementptr inbounds nuw i8, ptr %13, i64 320
  %22 = load ptr, ptr %21, align 8, !tbaa !72
  %23 = sext i32 %16 to i64
  %24 = getelementptr inbounds %struct.AVIndexEntry, ptr %22, i64 %23
  %25 = tail call i64 @avio_seek(ptr noundef %6, i64 noundef 0, i32 noundef 1) #8
  %26 = load i64, ptr %24, align 8, !tbaa !73
  %27 = icmp ugt i64 %26, %25
  br i1 %27, label %28, label %31

28:                                               ; preds = %20
  %29 = sub nuw i64 %26, %25
  %30 = tail call i64 @avio_skip(ptr noundef %6, i64 noundef %29) #8
  br label %42

31:                                               ; preds = %20
  %32 = icmp ult i64 %26, %25
  br i1 %32, label %33, label %42

33:                                               ; preds = %31
  %34 = getelementptr inbounds nuw i8, ptr %6, i64 144
  %35 = load i32, ptr %34, align 8, !tbaa !75
  %36 = and i32 %35, 1
  %.not49 = icmp eq i32 %36, 0
  br i1 %.not49, label %72, label %37

37:                                               ; preds = %33
  %38 = tail call i64 @avio_seek(ptr noundef nonnull %6, i64 noundef %26, i32 noundef 0) #8
  %39 = icmp slt i64 %38, 0
  br i1 %39, label %40, label %42

40:                                               ; preds = %37
  %41 = trunc i64 %38 to i32
  br label %72

42:                                               ; preds = %31, %37, %28
  %43 = getelementptr inbounds nuw i8, ptr %24, i64 16
  %44 = load i32, ptr %43, align 8
  %45 = ashr i32 %44, 2
  %46 = tail call i32 @av_get_packet(ptr noundef %6, ptr noundef %1, i32 noundef %45) #8
  %47 = icmp slt i32 %46, 0
  br i1 %47, label %72, label %48

48:                                               ; preds = %42
  %49 = load i32, ptr %9, align 4, !tbaa !57
  %50 = getelementptr inbounds nuw i8, ptr %1, i64 36
  store i32 %49, ptr %50, align 4, !tbaa !77
  %51 = getelementptr inbounds nuw i8, ptr %24, i64 8
  %52 = load i64, ptr %51, align 8, !tbaa !78
  %53 = getelementptr inbounds nuw i8, ptr %1, i64 8
  store i64 %52, ptr %53, align 8, !tbaa !79
  %54 = getelementptr inbounds nuw i8, ptr %1, i64 40
  %55 = load i32, ptr %54, align 8, !tbaa !80
  %56 = or i32 %55, 1
  store i32 %56, ptr %54, align 8, !tbaa !80
  %57 = sext i32 %49 to i64
  %58 = getelementptr inbounds [2 x i32], ptr %14, i64 0, i64 %57
  %59 = load i32, ptr %58, align 4, !tbaa !38
  %60 = add nsw i32 %59, 1
  store i32 %60, ptr %58, align 4, !tbaa !38
  %61 = getelementptr inbounds nuw i8, ptr %4, i64 8
  store i32 0, ptr %61, align 4, !tbaa !81
  %62 = load i32, ptr %9, align 4, !tbaa !57
  %63 = add nsw i32 %62, 1
  %64 = getelementptr inbounds nuw i8, ptr %0, i64 44
  %65 = load i32, ptr %64, align 4, !tbaa !82
  %.not50 = icmp ult i32 %63, %65
  %spec.store.select = select i1 %.not50, i32 %63, i32 0
  store i32 %spec.store.select, ptr %9, align 4
  br label %72

66:                                               ; preds = %2
  %67 = getelementptr inbounds nuw i8, ptr %4, i64 8
  %68 = load i32, ptr %67, align 4, !tbaa !81
  %69 = add nsw i32 %68, 1
  store i32 %69, ptr %67, align 4, !tbaa !81
  %70 = getelementptr inbounds nuw i8, ptr %0, i64 44
  %71 = load i32, ptr %70, align 4, !tbaa !82
  %.not = icmp ult i32 %69, %71
  %. = select i1 %.not, i32 -11, i32 -541478725
  br label %72

72:                                               ; preds = %66, %42, %33, %48, %40
  %.0 = phi i32 [ 0, %48 ], [ %41, %40 ], [ -5, %33 ], [ %46, %42 ], [ %., %66 ]
  ret i32 %.0
}